(dp0
VtestSumDate
p1
V45\u79d2
p2
sVversionCode
p3
V40
p4
sVsum
p5
L1L
sVtestDate
p6
V2018-05-07 23:39:09
p7
sVfail
p8
L0L
sVpackingTime
p9
V2017/12/4 13:00
p10
sVpass
p11
L1L
sVversionName
p12
V1.4.0
p13
s.